target datalayout = "e-m:e-p270:32:32-p271:32:32-p272:64:64-i64:64-i128:128-f80:128-n8:16:32:64-S128"
target triple = "x86_64-pc-linux-gnu"

@tetra_handle = internal global ptr null, align 8
@.str.1064 = private unnamed_addr constant [15 x i8] c"TETRA Protocol\00", align 1
@.str.1065 = private unnamed_addr constant [6 x i8] c"TETRA\00", align 1
@.str.1066 = private unnamed_addr constant [6 x i8] c"tetra\00", align 1
@proto_tetra = internal global i32 0, align 4
@.str.1067 = private unnamed_addr constant [23 x i8] c"include_carrier_number\00", align 1
@.str.1068 = private unnamed_addr constant [33 x i8] c"The data include carrier numbers\00", align 1
@.str.1069 = private unnamed_addr constant [49 x i8] c"Whether the captured data include carrier number\00", align 1
@include_carrier_number = internal global i8 1, align 1

; Function Attrs: null_pointer_is_valid sspstrong uwtable
define hidden void @proto_register_tetra() #0 {
  %1 = alloca ptr, align 8
  %2 = alloca ptr, align 8
  call void @llvm.lifetime.start.p0(i64 8, ptr %1) #4
  call void @llvm.lifetime.start.p0(i64 8, ptr %2) #4
  %3 = call i32 @proto_register_protocol(ptr noundef @.str.1064, ptr noundef @.str.1065, ptr noundef @.str.1066)
  store i32 %3, ptr @proto_tetra, align 4
  %4 = load i32, ptr @proto_tetra, align 4
  call void @proto_register_field_array(i32 noundef %4, ptr noundef @proto_register_tetra.hf, i32 noundef 607)
  call void @proto_register_subtree_array(ptr noundef @proto_register_tetra.ett, i32 noundef 275)
  %5 = load i32, ptr @proto_tetra, align 4
  %6 = call ptr @register_dissector(ptr noundef @.str.1066, ptr noundef @dissect_tetra, i32 noundef %5)
  store ptr %6, ptr @tetra_handle, align 8
  %7 = load i32, ptr @proto_tetra, align 4
  %8 = call ptr @expert_register_protocol(i32 noundef %7)
  store ptr %8, ptr %2, align 8
  %9 = load ptr, ptr %2, align 8
  call void @expert_register_field_array(ptr noundef %9, ptr noundef @proto_register_tetra.ei, i32 noundef 1)
  %10 = load i32, ptr @proto_tetra, align 4
  %11 = call ptr @prefs_register_protocol(i32 noundef %10, ptr noundef null)
  store ptr %11, ptr %1, align 8
  %12 = load ptr, ptr %1, align 8
  call void @prefs_register_bool_preference(ptr noundef %12, ptr noundef @.str.1067, ptr noundef @.str.1068, ptr noundef @.str.1069, ptr noundef @include_carrier_number)
  call void @llvm.lifetime.end.p0(i64 8, ptr %2) #4
  call void @llvm.lifetime.end.p0(i64 8, ptr %1) #4
  ret void
}