; Function Attrs: null_pointer_is_valid sspstrong uwtable
define hidden void @proto_register_tetra() local_unnamed_addr #0 {
  %1 = tail call i32 @proto_register_protocol(ptr noundef nonnull @.str.1064, ptr noundef nonnull @.str.1065, ptr noundef nonnull @.str.1066)
  store i32 %1, ptr @proto_tetra, align 4
  tail call void @proto_register_field_array(i32 noundef %1, ptr noundef nonnull @proto_register_tetra.hf, i32 noundef 607)
  tail call void @proto_register_subtree_array(ptr noundef nonnull @proto_register_tetra.ett, i32 noundef 275)
  %2 = load i32, ptr @proto_tetra, align 4
  %3 = tail call ptr @register_dissector(ptr noundef nonnull @.str.1066, ptr noundef nonnull @dissect_tetra, i32 noundef %2)
  store ptr %3, ptr @tetra_handle, align 8
  %4 = load i32, ptr @proto_tetra, align 4
  %5 = tail call ptr @expert_register_protocol(i32 noundef %4)
  tail call void @expert_register_field_array(ptr noundef %5, ptr noundef nonnull @proto_register_tetra.ei, i32 noundef 1)
  %6 = load i32, ptr @proto_tetra, align 4
  %7 = tail call ptr @prefs_register_protocol(i32 noundef %6, ptr noundef null)
  tail call void @prefs_register_bool_preference(ptr noundef %7, ptr noundef nonnull @.str.1067, ptr noundef nonnull @.str.1068, ptr noundef nonnull @.str.1069, ptr noundef nonnull @include_carrier_number)
  ret void
}